; Function Attrs: mustprogress nounwind uwtable
define internal fastcc void @_ZL13expandSHXDROTRN4llvm19MachineInstrBuilderERKNS_11MCInstrDescE(ptr noundef nonnull readonly align 8 captures(none) dereferenceable(16) %0, ptr noundef nonnull align 8 dereferenceable(32) %1) unnamed_addr #1 {
  %3 = alloca %"class.llvm::MachineOperand", align 8
  %4 = alloca %"class.llvm::MachineOperand", align 8
  %5 = getelementptr inbounds nuw i8, ptr %0, i64 8
  %6 = load ptr, ptr %5, align 8
  tail call void @_ZN4llvm12MachineInstr7setDescERKNS_11MCInstrDescE(ptr noundef nonnull align 8 dereferenceable(70) %6, ptr noundef nonnull align 8 dereferenceable(32) %1) #29
  %7 = load ptr, ptr %5, align 8
  %8 = getelementptr inbounds nuw i8, ptr %7, i64 32
  %9 = load ptr, ptr %8, align 8
  %10 = getelementptr inbounds nuw i8, ptr %9, i64 80
  %11 = load i64, ptr %10, align 8
  tail call void @_ZN4llvm12MachineInstr13removeOperandEj(ptr noundef nonnull align 8 dereferenceable(70) %7, i32 noundef 2) #29
  %12 = load ptr, ptr %5, align 8
  %13 = getelementptr inbounds nuw i8, ptr %12, i64 32
  %14 = load ptr, ptr %13, align 8
  %15 = getelementptr inbounds nuw i8, ptr %14, i64 36
  %16 = load i32, ptr %15, align 4
  %17 = getelementptr inbounds nuw i8, ptr %14, i64 32
  %18 = load i32, ptr %17, align 8
  %19 = and i32 %18, 268435456
  call void @llvm.lifetime.start.p0(i64 32, ptr nonnull %4)
  %20 = load ptr, ptr %0, align 8
  %21 = getelementptr inbounds nuw i8, ptr %4, i64 8
  store ptr null, ptr %21, align 8, !alias.scope !461
  %22 = getelementptr inbounds nuw i8, ptr %4, i64 4
  store i32 %16, ptr %22, align 4, !alias.scope !461
  %23 = getelementptr inbounds nuw i8, ptr %4, i64 16
  call void @llvm.memset.p0.i64(ptr noundef nonnull align 8 dereferenceable(16) %23, i8 0, i64 16, i1 false), !alias.scope !461
  store i32 %19, ptr %4, align 8, !alias.scope !461
  call void @_ZN4llvm12MachineInstr10addOperandERNS_15MachineFunctionERKNS_14MachineOperandE(ptr noundef nonnull align 8 dereferenceable(70) %12, ptr noundef nonnull align 8 dereferenceable(1041) %20, ptr noundef nonnull align 8 dereferenceable(32) %4) #29
  call void @llvm.lifetime.end.p0(i64 32, ptr nonnull %4)
  call void @llvm.lifetime.start.p0(i64 32, ptr nonnull %3)
  %24 = load ptr, ptr %5, align 8
  %25 = load ptr, ptr %0, align 8
  store i32 1, ptr %3, align 8, !alias.scope !464
  %26 = getelementptr inbounds nuw i8, ptr %3, i64 8
  store ptr null, ptr %26, align 8, !alias.scope !464
  %27 = getelementptr inbounds nuw i8, ptr %3, i64 16
  store i64 %11, ptr %27, align 8, !alias.scope !464
  call void @_ZN4llvm12MachineInstr10addOperandERNS_15MachineFunctionERKNS_14MachineOperandE(ptr noundef nonnull align 8 dereferenceable(70) %24, ptr noundef nonnull align 8 dereferenceable(1041) %25, ptr noundef nonnull align 8 dereferenceable(32) %3) #29
  call void @llvm.lifetime.end.p0(i64 32, ptr nonnull %3)
  ret void
}